; ModuleID = '46/2766.c'
source_filename = "46/2766.c"
target datalayout = "e-m:e-p270:32:32-p271:32:32-p272:64:64-i64:64-f80:128-n8:16:32:64-S128"
target triple = "x86_64-pc-linux-gnu"

@.str = private unnamed_addr constant [6 x i8] c"%d %d\00", align 1
@.str.1 = private unnamed_addr constant [3 x i8] c"%d\00", align 1
@.str.2 = private unnamed_addr constant [4 x i8] c"%d\0A\00", align 1

; Function Attrs: noinline nounwind uwtable
define dso_local i32 @main() #0 {
  %1 = alloca i32, align 4
  %2 = alloca i32, align 4
  %3 = alloca i32, align 4
  %4 = alloca [100 x [100 x i32]], align 16
  %5 = alloca i32, align 4
  %6 = alloca i32, align 4
  %7 = alloca [100 x [100 x i32]], align 16
  %8 = alloca i32, align 4
  %9 = alloca i32, align 4
  store i32 0, i32* %1, align 4
  %10 = call i32 (i8*, ...) @__isoc99_scanf(i8* getelementptr inbounds ([6 x i8], [6 x i8]* @.str, i64 0, i64 0), i32* %2, i32* %3)
  store i32 0, i32* %5, align 4
  br label %11

11:                                               ; preds = %38, %0
  %12 = load i32, i32* %5, align 4
  %13 = load i32, i32* %2, align 4
  %14 = icmp slt i32 %12, %13
  br i1 %14, label %15, label %41

15:                                               ; preds = %11
  store i32 0, i32* %6, align 4
  br label %16

16:                                               ; preds = %34, %15
  %17 = load i32, i32* %6, align 4
  %18 = load i32, i32* %3, align 4
  %19 = icmp slt i32 %17, %18
  br i1 %19, label %20, label %37

20:                                               ; preds = %16
  %21 = load i32, i32* %5, align 4
  %22 = sext i32 %21 to i64
  %23 = getelementptr inbounds [100 x [100 x i32]], [100 x [100 x i32]]* %4, i64 0, i64 %22
  %24 = load i32, i32* %6, align 4
  %25 = sext i32 %24 to i64
  %26 = getelementptr inbounds [100 x i32], [100 x i32]* %23, i64 0, i64 %25
  %27 = call i32 (i8*, ...) @__isoc99_scanf(i8* getelementptr inbounds ([3 x i8], [3 x i8]* @.str.1, i64 0, i64 0), i32* %26)
  %28 = load i32, i32* %5, align 4
  %29 = sext i32 %28 to i64
  %30 = getelementptr inbounds [100 x [100 x i32]], [100 x [100 x i32]]* %7, i64 0, i64 %29
  %31 = load i32, i32* %6, align 4
  %32 = sext i32 %31 to i64
  %33 = getelementptr inbounds [100 x i32], [100 x i32]* %30, i64 0, i64 %32
  store i32 1, i32* %33, align 4
  br label %34

34:                                               ; preds = %20
  %35 = load i32, i32* %6, align 4
  %36 = add nsw i32 %35, 1
  store i32 %36, i32* %6, align 4
  br label %16

37:                                               ; preds = %16
  br label %38

38:                                               ; preds = %37
  %39 = load i32, i32* %5, align 4
  %40 = add nsw i32 %39, 1
  store i32 %40, i32* %5, align 4
  br label %11

41:                                               ; preds = %11
  store i32 0, i32* %5, align 4
  store i32 -1, i32* %6, align 4
  store i32 0, i32* %9, align 4
  store i32 0, i32* %8, align 4
  br label %42

42:                                               ; preds = %230, %41
  %43 = load i32, i32* %9, align 4
  %44 = load i32, i32* %2, align 4
  %45 = load i32, i32* %3, align 4
  %46 = mul nsw i32 %44, %45
  %47 = icmp slt i32 %43, %46
  br i1 %47, label %48, label %233

48:                                               ; preds = %42
  %49 = load i32, i32* %8, align 4
  %50 = srem i32 %49, 4
  %51 = icmp eq i32 %50, 0
  br i1 %51, label %52, label %93

52:                                               ; preds = %48
  %53 = load i32, i32* %6, align 4
  %54 = add nsw i32 %53, 1
  store i32 %54, i32* %6, align 4
  br label %55

55:                                               ; preds = %87, %52
  %56 = load i32, i32* %6, align 4
  %57 = load i32, i32* %3, align 4
  %58 = icmp slt i32 %56, %57
  br i1 %58, label %59, label %68

59:                                               ; preds = %55
  %60 = load i32, i32* %5, align 4
  %61 = sext i32 %60 to i64
  %62 = getelementptr inbounds [100 x [100 x i32]], [100 x [100 x i32]]* %7, i64 0, i64 %61
  %63 = load i32, i32* %6, align 4
  %64 = sext i32 %63 to i64
  %65 = getelementptr inbounds [100 x i32], [100 x i32]* %62, i64 0, i64 %64
  %66 = load i32, i32* %65, align 4
  %67 = icmp eq i32 %66, 1
  br label %68

68:                                               ; preds = %59, %55
  %69 = phi i1 [ false, %55 ], [ %67, %59 ]
  br i1 %69, label %70, label %90

70:                                               ; preds = %68
  %71 = load i32, i32* %5, align 4
  %72 = sext i32 %71 to i64
  %73 = getelementptr inbounds [100 x [100 x i32]], [100 x [100 x i32]]* %4, i64 0, i64 %72
  %74 = load i32, i32* %6, align 4
  %75 = sext i32 %74 to i64
  %76 = getelementptr inbounds [100 x i32], [100 x i32]* %73, i64 0, i64 %75
  %77 = load i32, i32* %76, align 4
  %78 = call i32 (i8*, ...) @printf(i8* getelementptr inbounds ([4 x i8], [4 x i8]* @.str.2, i64 0, i64 0), i32 %77)
  %79 = load i32, i32* %9, align 4
  %80 = add nsw i32 %79, 1
  store i32 %80, i32* %9, align 4
  %81 = load i32, i32* %5, align 4
  %82 = sext i32 %81 to i64
  %83 = getelementptr inbounds [100 x [100 x i32]], [100 x [100 x i32]]* %7, i64 0, i64 %82
  %84 = load i32, i32* %6, align 4
  %85 = sext i32 %84 to i64
  %86 = getelementptr inbounds [100 x i32], [100 x i32]* %83, i64 0, i64 %85
  store i32 0, i32* %86, align 4
  br label %87

87:                                               ; preds = %70
  %88 = load i32, i32* %6, align 4
  %89 = add nsw i32 %88, 1
  store i32 %89, i32* %6, align 4
  br label %55

90:                                               ; preds = %68
  %91 = load i32, i32* %6, align 4
  %92 = add nsw i32 %91, -1
  store i32 %92, i32* %6, align 4
  br label %229

93:                                               ; preds = %48
  %94 = load i32, i32* %8, align 4
  %95 = srem i32 %94, 4
  %96 = icmp eq i32 %95, 1
  br i1 %96, label %97, label %138

97:                                               ; preds = %93
  %98 = load i32, i32* %5, align 4
  %99 = add nsw i32 %98, 1
  store i32 %99, i32* %5, align 4
  br label %100

100:                                              ; preds = %132, %97
  %101 = load i32, i32* %5, align 4
  %102 = load i32, i32* %2, align 4
  %103 = icmp slt i32 %101, %102
  br i1 %103, label %104, label %113

104:                                              ; preds = %100
  %105 = load i32, i32* %5, align 4
  %106 = sext i32 %105 to i64
  %107 = getelementptr inbounds [100 x [100 x i32]], [100 x [100 x i32]]* %7, i64 0, i64 %106
  %108 = load i32, i32* %6, align 4
  %109 = sext i32 %108 to i64
  %110 = getelementptr inbounds [100 x i32], [100 x i32]* %107, i64 0, i64 %109
  %111 = load i32, i32* %110, align 4
  %112 = icmp eq i32 %111, 1
  br label %113

113:                                              ; preds = %104, %100
  %114 = phi i1 [ false, %100 ], [ %112, %104 ]
  br i1 %114, label %115, label %135

115:                                              ; preds = %113
  %116 = load i32, i32* %5, align 4
  %117 = sext i32 %116 to i64
  %118 = getelementptr inbounds [100 x [100 x i32]], [100 x [100 x i32]]* %4, i64 0, i64 %117
  %119 = load i32, i32* %6, align 4
  %120 = sext i32 %119 to i64
  %121 = getelementptr inbounds [100 x i32], [100 x i32]* %118, i64 0, i64 %120
  %122 = load i32, i32* %121, align 4
  %123 = call i32 (i8*, ...) @printf(i8* getelementptr inbounds ([4 x i8], [4 x i8]* @.str.2, i64 0, i64 0), i32 %122)
  %124 = load i32, i32* %9, align 4
  %125 = add nsw i32 %124, 1
  store i32 %125, i32* %9, align 4
  %126 = load i32, i32* %5, align 4
  %127 = sext i32 %126 to i64
  %128 = getelementptr inbounds [100 x [100 x i32]], [100 x [100 x i32]]* %7, i64 0, i64 %127
  %129 = load i32, i32* %6, align 4
  %130 = sext i32 %129 to i64
  %131 = getelementptr inbounds [100 x i32], [100 x i32]* %128, i64 0, i64 %130
  store i32 0, i32* %131, align 4
  br label %132

132:                                              ; preds = %115
  %133 = load i32, i32* %5, align 4
  %134 = add nsw i32 %133, 1
  store i32 %134, i32* %5, align 4
  br label %100

135:                                              ; preds = %113
  %136 = load i32, i32* %5, align 4
  %137 = add nsw i32 %136, -1
  store i32 %137, i32* %5, align 4
  br label %228

138:                                              ; preds = %93
  %139 = load i32, i32* %8, align 4
  %140 = srem i32 %139, 4
  %141 = icmp eq i32 %140, 2
  br i1 %141, label %142, label %182

142:                                              ; preds = %138
  %143 = load i32, i32* %6, align 4
  %144 = sub nsw i32 %143, 1
  store i32 %144, i32* %6, align 4
  br label %145

145:                                              ; preds = %176, %142
  %146 = load i32, i32* %6, align 4
  %147 = icmp sge i32 %146, 0
  br i1 %147, label %148, label %157

148:                                              ; preds = %145
  %149 = load i32, i32* %5, align 4
  %150 = sext i32 %149 to i64
  %151 = getelementptr inbounds [100 x [100 x i32]], [100 x [100 x i32]]* %7, i64 0, i64 %150
  %152 = load i32, i32* %6, align 4
  %153 = sext i32 %152 to i64
  %154 = getelementptr inbounds [100 x i32], [100 x i32]* %151, i64 0, i64 %153
  %155 = load i32, i32* %154, align 4
  %156 = icmp eq i32 %155, 1
  br label %157

157:                                              ; preds = %148, %145
  %158 = phi i1 [ false, %145 ], [ %156, %148 ]
  br i1 %158, label %159, label %179

159:                                              ; preds = %157
  %160 = load i32, i32* %5, align 4
  %161 = sext i32 %160 to i64
  %162 = getelementptr inbounds [100 x [100 x i32]], [100 x [100 x i32]]* %4, i64 0, i64 %161
  %163 = load i32, i32* %6, align 4
  %164 = sext i32 %163 to i64
  %165 = getelementptr inbounds [100 x i32], [100 x i32]* %162, i64 0, i64 %164
  %166 = load i32, i32* %165, align 4
  %167 = call i32 (i8*, ...) @printf(i8* getelementptr inbounds ([4 x i8], [4 x i8]* @.str.2, i64 0, i64 0), i32 %166)
  %168 = load i32, i32* %9, align 4
  %169 = add nsw i32 %168, 1
  store i32 %169, i32* %9, align 4
  %170 = load i32, i32* %5, align 4
  %171 = sext i32 %170 to i64
  %172 = getelementptr inbounds [100 x [100 x i32]], [100 x [100 x i32]]* %7, i64 0, i64 %171
  %173 = load i32, i32* %6, align 4
  %174 = sext i32 %173 to i64
  %175 = getelementptr inbounds [100 x i32], [100 x i32]* %172, i64 0, i64 %174
  store i32 0, i32* %175, align 4
  br label %176

176:                                              ; preds = %159
  %177 = load i32, i32* %6, align 4
  %178 = add nsw i32 %177, -1
  store i32 %178, i32* %6, align 4
  br label %145

179:                                              ; preds = %157
  %180 = load i32, i32* %6, align 4
  %181 = add nsw i32 %180, 1
  store i32 %181, i32* %6, align 4
  br label %227

182:                                              ; preds = %138
  %183 = load i32, i32* %8, align 4
  %184 = srem i32 %183, 4
  %185 = icmp eq i32 %184, 3
  br i1 %185, label %186, label %226

186:                                              ; preds = %182
  %187 = load i32, i32* %5, align 4
  %188 = sub nsw i32 %187, 1
  store i32 %188, i32* %5, align 4
  br label %189

189:                                              ; preds = %220, %186
  %190 = load i32, i32* %5, align 4
  %191 = icmp sge i32 %190, 0
  br i1 %191, label %192, label %201

192:                                              ; preds = %189
  %193 = load i32, i32* %5, align 4
  %194 = sext i32 %193 to i64
  %195 = getelementptr inbounds [100 x [100 x i32]], [100 x [100 x i32]]* %7, i64 0, i64 %194
  %196 = load i32, i32* %6, align 4
  %197 = sext i32 %196 to i64
  %198 = getelementptr inbounds [100 x i32], [100 x i32]* %195, i64 0, i64 %197
  %199 = load i32, i32* %198, align 4
  %200 = icmp eq i32 %199, 1
  br label %201

201:                                              ; preds = %192, %189
  %202 = phi i1 [ false, %189 ], [ %200, %192 ]
  br i1 %202, label %203, label %223

203:                                              ; preds = %201
  %204 = load i32, i32* %5, align 4
  %205 = sext i32 %204 to i64
  %206 = getelementptr inbounds [100 x [100 x i32]], [100 x [100 x i32]]* %4, i64 0, i64 %205
  %207 = load i32, i32* %6, align 4
  %208 = sext i32 %207 to i64
  %209 = getelementptr inbounds [100 x i32], [100 x i32]* %206, i64 0, i64 %208
  %210 = load i32, i32* %209, align 4
  %211 = call i32 (i8*, ...) @printf(i8* getelementptr inbounds ([4 x i8], [4 x i8]* @.str.2, i64 0, i64 0), i32 %210)
  %212 = load i32, i32* %9, align 4
  %213 = add nsw i32 %212, 1
  store i32 %213, i32* %9, align 4
  %214 = load i32, i32* %5, align 4
  %215 = sext i32 %214 to i64
  %216 = getelementptr inbounds [100 x [100 x i32]], [100 x [100 x i32]]* %7, i64 0, i64 %215
  %217 = load i32, i32* %6, align 4
  %218 = sext i32 %217 to i64
  %219 = getelementptr inbounds [100 x i32], [100 x i32]* %216, i64 0, i64 %218
  store i32 0, i32* %219, align 4
  br label %220

220:                                              ; preds = %203
  %221 = load i32, i32* %5, align 4
  %222 = add nsw i32 %221, -1
  store i32 %222, i32* %5, align 4
  br label %189

223:                                              ; preds = %201
  %224 = load i32, i32* %5, align 4
  %225 = add nsw i32 %224, 1
  store i32 %225, i32* %5, align 4
  br label %226

226:                                              ; preds = %223, %182
  br label %227

227:                                              ; preds = %226, %179
  br label %228

228:                                              ; preds = %227, %135
  br label %229

229:                                              ; preds = %228, %90
  br label %230

230:                                              ; preds = %229
  %231 = load i32, i32* %8, align 4
  %232 = add nsw i32 %231, 1
  store i32 %232, i32* %8, align 4
  br label %42

233:                                              ; preds = %42
  ret i32 0
}

declare dso_local i32 @__isoc99_scanf(i8*, ...) #1

declare dso_local i32 @printf(i8*, ...) #1


!llvm.module.flags = !{!0}
!llvm.ident = !{!1}

!0 = !{i32 1, !"wchar_size", i32 4}
!1 = !{!"clang version 10.0.0-4ubuntu1 "}
